DW.ref.__gxx_personality_v0 ppng_DW.ref.__gxx_personality_v0
pbitlen_0_1024 ppng_pbitlen_0_1024
pbitlen_n2048_2047 ppng_pbitlen_n2048_2047
pjglib_convert_batch ppng_pjglib_convert_batch
pjglib_convert_file2file ppng_pjglib_convert_file2file
pjglib_convert_stream2mem ppng_pjglib_convert_stream2mem
pjglib_convert_stream2stream ppng_pjglib_convert_stream2stream
pjglib_get_inter_file_threads ppng_pjglib_get_inter_file_threads
pjglib_get_intra_file_threads ppng_pjglib_get_intra_file_threads
pjglib_get_max_output_size ppng_pjglib_get_max_output_size
pjglib_init_streams ppng_pjglib_init_streams
pjglib_set_inter_file_threads ppng_pjglib_set_inter_file_threads
pjglib_set_intra_file_threads ppng_pjglib_set_intra_file_threads
pjglib_set_max_output_size ppng_pjglib_set_max_output_size
pjglib_short_name ppng_pjglib_short_name
pjglib_suggest_batch_threads ppng_pjglib_suggest_batch_threads
pjglib_version_info ppng_pjglib_version_info
segm_tables ppng_segm_tables
_Z7mbits32jmm ppng__Z7mbits32jmm
_Z7rbits32jm ppng__Z7rbits32jm
_ZN10FileReader12rewind_bytesEm ppng__ZN10FileReader12rewind_bytesEm
_ZN10FileReader13end_of_readerEv ppng__ZN10FileReader13end_of_readerEv
_ZN10FileReader14num_bytes_readEv ppng__ZN10FileReader14num_bytes_readEv
_ZN10FileReader4readEPhm ppng__ZN10FileReader4readEPhm
_ZN10FileReader4readERSt6vectorIhSaIhEEmm ppng__ZN10FileReader4readERSt6vectorIhSaIhEEmm
_ZN10FileReader4skipEm ppng__ZN10FileReader4skipEm
_ZN10FileReader5errorEv ppng__ZN10FileReader5errorEv
_ZN10FileReader6rewindEv ppng__ZN10FileReader6rewindEv
_ZN10FileReader8get_dataEv ppng__ZN10FileReader8get_dataEv
_ZN10FileReader8get_sizeEv ppng__ZN10FileReader8get_sizeEv
_ZN10FileReader9read_byteEPh ppng__ZN10FileReader9read_byteEPh
_ZN10FileReader9read_byteEv ppng__ZN10FileReader9read_byteEv
_ZN10FileReaderC1ERKNSt7__cxx1112basic_stringIcSt11char_traitsIcESaIcEEE ppng__ZN10FileReaderC1ERKNSt7__cxx1112basic_stringIcSt11char_traitsIcESaIcEEE
_ZN10FileReaderC2ERKNSt7__cxx1112basic_stringIcSt11char_traitsIcESaIcEEE ppng__ZN10FileReaderC2ERKNSt7__cxx1112basic_stringIcSt11char_traitsIcESaIcEEE
_ZN10FileReaderD0Ev ppng__ZN10FileReaderD0Ev
_ZN10FileReaderD1Ev ppng__ZN10FileReaderD1Ev
_ZN10FileReaderD2Ev ppng__ZN10FileReaderD2Ev
_ZN10FileWriter10write_byteEh ppng__ZN10FileWriter10write_byteEh
_ZN10FileWriter17num_bytes_writtenEv ppng__ZN10FileWriter17num_bytes_writtenEv
_ZN10FileWriter5errorEv ppng__ZN10FileWriter5errorEv
_ZN10FileWriter5resetEv ppng__ZN10FileWriter5resetEv
_ZN10FileWriter5writeEPKhm ppng__ZN10FileWriter5writeEPKhm
_ZN10FileWriter5writeERKSt5arrayIhLm2EE ppng__ZN10FileWriter5writeERKSt5arrayIhLm2EE
_ZN10FileWriter5writeERKSt6vectorIhSaIhEE ppng__ZN10FileWriter5writeERKSt6vectorIhSaIhEE
_ZN10FileWriter8get_dataEv ppng__ZN10FileWriter8get_dataEv
_ZN10FileWriterC1ERKNSt7__cxx1112basic_stringIcSt11char_traitsIcESaIcEEE ppng__ZN10FileWriterC1ERKNSt7__cxx1112basic_stringIcSt11char_traitsIcESaIcEEE
_ZN10FileWriterC2ERKNSt7__cxx1112basic_stringIcSt11char_traitsIcESaIcEEE ppng__ZN10FileWriterC2ERKNSt7__cxx1112basic_stringIcSt11char_traitsIcESaIcEEE
_ZN10FileWriterD0Ev ppng__ZN10FileWriterD0Ev
_ZN10FileWriterD1Ev ppng__ZN10FileWriterD1Ev
_ZN10FileWriterD2Ev ppng__ZN10FileWriterD2Ev
_ZN12MemoryReader12rewind_bytesEm ppng__ZN12MemoryReader12rewind_bytesEm
_ZN12MemoryReader13end_of_readerEv ppng__ZN12MemoryReader13end_of_readerEv
_ZN12MemoryReader14num_bytes_readEv ppng__ZN12MemoryReader14num_bytes_readEv
_ZN12MemoryReader4readEPhm ppng__ZN12MemoryReader4readEPhm
_ZN12MemoryReader4readERSt6vectorIhSaIhEEmm ppng__ZN12MemoryReader4readERSt6vectorIhSaIhEEmm
_ZN12MemoryReader4skipEm ppng__ZN12MemoryReader4skipEm
_ZN12MemoryReader5errorEv ppng__ZN12MemoryReader5errorEv
_ZN12MemoryReader6rewindEv ppng__ZN12MemoryReader6rewindEv
_ZN12MemoryReader8get_dataEv ppng__ZN12MemoryReader8get_dataEv
_ZN12MemoryReader8get_sizeEv ppng__ZN12MemoryReader8get_sizeEv
_ZN12MemoryReader9read_byteEPh ppng__ZN12MemoryReader9read_byteEPh
_ZN12MemoryReader9read_byteEv ppng__ZN12MemoryReader9read_byteEv
_ZN12MemoryReaderC1EPKhm ppng__ZN12MemoryReaderC1EPKhm
_ZN12MemoryReaderC1ERKSt6vectorIhSaIhEE ppng__ZN12MemoryReaderC1ERKSt6vectorIhSaIhEE
_ZN12MemoryReaderC2EPKhm ppng__ZN12MemoryReaderC2EPKhm
_ZN12MemoryReaderC2ERKSt6vectorIhSaIhEE ppng__ZN12MemoryReaderC2ERKSt6vectorIhSaIhEE
_ZN12MemoryReaderD0Ev ppng__ZN12MemoryReaderD0Ev
_ZN12MemoryReaderD2Ev ppng__ZN12MemoryReaderD2Ev
_ZN12MemoryWriter10write_byteEh ppng__ZN12MemoryWriter10write_byteEh
_ZN12MemoryWriter17num_bytes_writtenEv ppng__ZN12MemoryWriter17num_bytes_writtenEv
_ZN12MemoryWriter5errorEv ppng__ZN12MemoryWriter5errorEv
_ZN12MemoryWriter5resetEv ppng__ZN12MemoryWriter5resetEv
_ZN12MemoryWriter5writeEPKhm ppng__ZN12MemoryWriter5writeEPKhm
_ZN12MemoryWriter5writeERKSt5arrayIhLm2EE ppng__ZN12MemoryWriter5writeERKSt5arrayIhLm2EE
_ZN12MemoryWriter5writeERKSt6vectorIhSaIhEE ppng__ZN12MemoryWriter5writeERKSt6vectorIhSaIhEE
_ZN12MemoryWriter8get_dataEv ppng__ZN12MemoryWriter8get_dataEv
_ZN12MemoryWriterC1Ev ppng__ZN12MemoryWriterC1Ev
_ZN12MemoryWriterC2Ev ppng__ZN12MemoryWriterC2Ev
_ZN12MemoryWriterD0Ev ppng__ZN12MemoryWriterD0Ev
_ZN12MemoryWriterD2Ev ppng__ZN12MemoryWriterD2Ev
_ZN12StreamReader12rewind_bytesEm ppng__ZN12StreamReader12rewind_bytesEm
_ZN12StreamReader13end_of_readerEv ppng__ZN12StreamReader13end_of_readerEv
_ZN12StreamReader14num_bytes_readEv ppng__ZN12StreamReader14num_bytes_readEv
_ZN12StreamReader4readEPhm ppng__ZN12StreamReader4readEPhm
_ZN12StreamReader4readERSt6vectorIhSaIhEEmm ppng__ZN12StreamReader4readERSt6vectorIhSaIhEEmm
_ZN12StreamReader4skipEm ppng__ZN12StreamReader4skipEm
_ZN12StreamReader5errorEv ppng__ZN12StreamReader5errorEv
_ZN12StreamReader6rewindEv ppng__ZN12StreamReader6rewindEv
_ZN12StreamReader8get_dataEv ppng__ZN12StreamReader8get_dataEv
_ZN12StreamReader8get_sizeEv ppng__ZN12StreamReader8get_sizeEv
_ZN12StreamReader9read_byteEPh ppng__ZN12StreamReader9read_byteEPh
_ZN12StreamReader9read_byteEv ppng__ZN12StreamReader9read_byteEv
_ZN12StreamReaderC1Ev ppng__ZN12StreamReaderC1Ev
_ZN12StreamReaderC2Ev ppng__ZN12StreamReaderC2Ev
_ZN12StreamReaderD0Ev ppng__ZN12StreamReaderD0Ev
_ZN12StreamReaderD2Ev ppng__ZN12StreamReaderD2Ev
_ZN12StreamWriter10write_byteEh ppng__ZN12StreamWriter10write_byteEh
_ZN12StreamWriter17num_bytes_writtenEv ppng__ZN12StreamWriter17num_bytes_writtenEv
_ZN12StreamWriter5errorEv ppng__ZN12StreamWriter5errorEv
_ZN12StreamWriter5resetEv ppng__ZN12StreamWriter5resetEv
_ZN12StreamWriter5writeEPKhm ppng__ZN12StreamWriter5writeEPKhm
_ZN12StreamWriter5writeERKSt5arrayIhLm2EE ppng__ZN12StreamWriter5writeERKSt5arrayIhLm2EE
_ZN12StreamWriter5writeERKSt6vectorIhSaIhEE ppng__ZN12StreamWriter5writeERKSt6vectorIhSaIhEE
_ZN12StreamWriter8get_dataEv ppng__ZN12StreamWriter8get_dataEv
_ZN12StreamWriterC1Ev ppng__ZN12StreamWriterC1Ev
_ZN12StreamWriterC2Ev ppng__ZN12StreamWriterC2Ev
_ZN12StreamWriterD0Ev ppng__ZN12StreamWriterD0Ev
_ZN12StreamWriterD1Ev ppng__ZN12StreamWriterD1Ev
_ZN12StreamWriterD2Ev ppng__ZN12StreamWriterD2Ev
_ZN17ArithmeticDecoder12decode_countEP6symbol ppng__ZN17ArithmeticDecoder12decode_countEP6symbol
_ZN17ArithmeticDecoder6decodeEP6symbol ppng__ZN17ArithmeticDecoder6decodeEP6symbol
_ZN17ArithmeticDecoder8read_bitEv ppng__ZN17ArithmeticDecoder8read_bitEv
_ZN17ArithmeticDecoderC1ER6Reader ppng__ZN17ArithmeticDecoderC1ER6Reader
_ZN17ArithmeticDecoderC2ER6Reader ppng__ZN17ArithmeticDecoderC2ER6Reader
_ZN17ArithmeticEncoder6encodeEP6symbol ppng__ZN17ArithmeticEncoder6encodeEP6symbol
_ZN17ArithmeticEncoder8finalizeEv ppng__ZN17ArithmeticEncoder8finalizeEv
_ZN17ArithmeticEncoderC1ER6Writer ppng__ZN17ArithmeticEncoderC1ER6Writer
_ZN17ArithmeticEncoderC2ER6Writer ppng__ZN17ArithmeticEncoderC2ER6Writer
_ZN17ArithmeticEncoderD1Ev ppng__ZN17ArithmeticEncoderD1Ev
_ZN17ArithmeticEncoderD2Ev ppng__ZN17ArithmeticEncoderD2Ev
_ZN19ArithmeticBitWriter16write_n_one_bitsEm ppng__ZN19ArithmeticBitWriter16write_n_one_bitsEm
_ZN19ArithmeticBitWriter17write_n_zero_bitsEm ppng__ZN19ArithmeticBitWriter17write_n_zero_bitsEm
_ZN19ArithmeticBitWriter3padEv ppng__ZN19ArithmeticBitWriter3padEv
_ZN5table15recursive_flushEv ppng__ZN5table15recursive_flushEv
_ZN5tableD2Ev ppng__ZN5tableD2Ev
_ZN6Reader10get_c_dataEv ppng__ZN6Reader10get_c_dataEv
_ZN6Writer10get_c_dataEv ppng__ZN6Writer10get_c_dataEv
_ZN7model_b12update_modelEi ppng__ZN7model_b12update_modelEi
_ZN7model_b13shift_contextEi ppng__ZN7model_b13shift_contextEi
_ZN7model_b16get_symbol_scaleEP6symbol ppng__ZN7model_b16get_symbol_scaleEP6symbol
_ZN7model_b21convert_int_to_symbolEiP6symbol ppng__ZN7model_b21convert_int_to_symbolEiP6symbol
_ZN7model_bC1Eiii ppng__ZN7model_bC1Eiii
_ZN7model_bC2Eiii ppng__ZN7model_bC2Eiii
_ZN7model_bD1Ev ppng__ZN7model_bD1Ev
_ZN7model_bD2Ev ppng__ZN7model_bD2Ev
_ZN7model_s12update_modelEi ppng__ZN7model_s12update_modelEi
_ZN7model_s13shift_contextEi ppng__ZN7model_s13shift_contextEi
_ZN7model_s16get_symbol_scaleEP6symbol ppng__ZN7model_s16get_symbol_scaleEP6symbol
_ZN7model_s21convert_int_to_symbolEiP6symbol ppng__ZN7model_s21convert_int_to_symbolEiP6symbol
_ZN7model_sC1Eiiii ppng__ZN7model_sC1Eiiii
_ZN7model_sC2Eiiii ppng__ZN7model_sC2Eiiii
_ZN7model_sD1Ev ppng__ZN7model_sD1Ev
_ZN7model_sD2Ev ppng__ZN7model_sD2Ev
_ZN7table_s15recursive_flushEv ppng__ZN7table_s15recursive_flushEv
_ZN7table_sD2Ev ppng__ZN7table_sD2Ev
_ZN9BitReader11rewind_bitsEi ppng__ZN9BitReader11rewind_bitsEi
_ZN9BitReader16update_curr_byteEv ppng__ZN9BitReader16update_curr_byteEv
_ZN9BitReader3eofEv ppng__ZN9BitReader3eofEv
_ZN9BitReader4peofEv ppng__ZN9BitReader4peofEv
_ZN9BitReader4readEi ppng__ZN9BitReader4readEi
_ZN9BitReader5unpadEh ppng__ZN9BitReader5unpadEh
_ZN9BitReader6getposEv ppng__ZN9BitReader6getposEv
_ZN9BitReader6setposEii ppng__ZN9BitReader6setposEii
_ZN9BitReader7getbitpEv ppng__ZN9BitReader7getbitpEv
_ZN9BitReader8read_bitEv ppng__ZN9BitReader8read_bitEv
_ZN9BitReaderC1EPhi ppng__ZN9BitReaderC1EPhi
_ZN9BitReaderC2EPhi ppng__ZN9BitReaderC2EPhi
_ZN9BitReaderD1Ev ppng__ZN9BitReaderD1Ev
_ZN9BitReaderD2Ev ppng__ZN9BitReaderD2Ev
_ZN9BitWriter11get_c_bytesEv ppng__ZN9BitWriter11get_c_bytesEv
_ZN9BitWriter15write_curr_byteEv ppng__ZN9BitWriter15write_curr_byteEv
_ZN9BitWriter3padEv ppng__ZN9BitWriter3padEv
_ZN9BitWriter9get_bytesEv ppng__ZN9BitWriter9get_bytesEv
_ZN9BitWriter9write_bitEh ppng__ZN9BitWriter9write_bitEh
_ZN9BitWriter9write_u16Etm ppng__ZN9BitWriter9write_u16Etm
_ZN9BitWriterC1Eh ppng__ZN9BitWriterC1Eh
_ZN9BitWriterC1Ehm ppng__ZN9BitWriterC1Ehm
_ZN9BitWriterC2Eh ppng__ZN9BitWriterC2Eh
_ZN9BitWriterC2Ehm ppng__ZN9BitWriterC2Ehm
_ZN9BitWriterD1Ev ppng__ZN9BitWriterD1Ev
_ZN9BitWriterD2Ev ppng__ZN9BitWriterD2Ev
_ZNK19ArithmeticBitWriter8get_dataEv ppng__ZNK19ArithmeticBitWriter8get_dataEv
_ZNK9BitWriter17num_bytes_writtenEv ppng__ZNK9BitWriter17num_bytes_writtenEv
_ZNKSt13__future_base13_State_baseV221_M_is_deferred_futureEv ppng__ZNKSt13__future_base13_State_baseV221_M_is_deferred_futureEv
_ZNSt10filesystem7__cxx114pathD2Ev ppng__ZNSt10filesystem7__cxx114pathD2Ev
_ZNSt10unique_ptrI6ReaderSt14default_deleteIS0_EED2Ev ppng__ZNSt10unique_ptrI6ReaderSt14default_deleteIS0_EED2Ev
_ZNSt10unique_ptrI6WriterSt14default_deleteIS0_EED2Ev ppng__ZNSt10unique_ptrI6WriterSt14default_deleteIS0_EED2Ev
_ZNSt13__future_base13_State_baseV216_M_break_promiseESt10unique_ptrINS_12_Result_baseENS2_8_DeleterEE ppng__ZNSt13__future_base13_State_baseV216_M_break_promiseESt10unique_ptrINS_12_Result_baseENS2_8_DeleterEE
_ZNSt13__future_base13_State_baseV217_M_complete_asyncEv ppng__ZNSt13__future_base13_State_baseV217_M_complete_asyncEv
_ZNSt13__future_base13_State_baseV29_M_do_setEPSt8functionIFSt10unique_ptrINS_12_Result_baseENS3_8_DeleterEEvEEPb ppng__ZNSt13__future_base13_State_baseV29_M_do_setEPSt8functionIFSt10unique_ptrINS_12_Result_baseENS3_8_DeleterEEvEEPb
_ZNSt13__future_base13_State_baseV2D0Ev ppng__ZNSt13__future_base13_State_baseV2D0Ev
_ZNSt13__future_base13_State_baseV2D2Ev ppng__ZNSt13__future_base13_State_baseV2D2Ev
_ZNSt13__future_base21_Async_state_commonV217_M_complete_asyncEv ppng__ZNSt13__future_base21_Async_state_commonV217_M_complete_asyncEv
_ZNSt13__future_base21_Async_state_commonV2D0Ev ppng__ZNSt13__future_base21_Async_state_commonV2D0Ev
_ZNSt13__future_base21_Async_state_commonV2D2Ev ppng__ZNSt13__future_base21_Async_state_commonV2D2Ev
_ZNSt13__future_base7_ResultIbE10_M_destroyEv ppng__ZNSt13__future_base7_ResultIbE10_M_destroyEv
_ZNSt13__future_base7_ResultIbED0Ev ppng__ZNSt13__future_base7_ResultIbED0Ev
_ZNSt13__future_base7_ResultIbED2Ev ppng__ZNSt13__future_base7_ResultIbED2Ev
_ZNSt13__future_base7_ResultIvE10_M_destroyEv ppng__ZNSt13__future_base7_ResultIvE10_M_destroyEv
_ZNSt13__future_base7_ResultIvED0Ev ppng__ZNSt13__future_base7_ResultIvED0Ev
_ZNSt15__exception_ptr12__dest_thunkISt12future_errorEEvPv ppng__ZNSt15__exception_ptr12__dest_thunkISt12future_errorEEvPv
_ZNSt16_Sp_counted_baseILN9__gnu_cxx12_Lock_policyE2EE24_M_release_last_use_coldEv ppng__ZNSt16_Sp_counted_baseILN9__gnu_cxx12_Lock_policyE2EE24_M_release_last_use_coldEv
_ZNSt17_Function_handlerIFSt10unique_ptrINSt13__future_base12_Result_baseENS2_8_DeleterEEvENS1_13_State_baseV27_SetterIvvEEE10_M_managerERSt9_Any_dataRKSA_St18_Manager_operation ppng__ZNSt17_Function_handlerIFSt10unique_ptrINSt13__future_base12_Result_baseENS2_8_DeleterEEvENS1_13_State_baseV27_SetterIvvEEE10_M_managerERSt9_Any_dataRKSA_St18_Manager_operation
_ZNSt17_Function_handlerIFSt10unique_ptrINSt13__future_base12_Result_baseENS2_8_DeleterEEvENS1_13_State_baseV27_SetterIvvEEE9_M_invokeERKSt9_Any_data ppng__ZNSt17_Function_handlerIFSt10unique_ptrINSt13__future_base12_Result_baseENS2_8_DeleterEEvENS1_13_State_baseV27_SetterIvvEEE9_M_invokeERKSt9_Any_data
_ZNSt23_Sp_counted_ptr_inplaceINSt13__future_base13_State_baseV2ESaIvELN9__gnu_cxx12_Lock_policyE2EE10_M_destroyEv ppng__ZNSt23_Sp_counted_ptr_inplaceINSt13__future_base13_State_baseV2ESaIvELN9__gnu_cxx12_Lock_policyE2EE10_M_destroyEv
_ZNSt23_Sp_counted_ptr_inplaceINSt13__future_base13_State_baseV2ESaIvELN9__gnu_cxx12_Lock_policyE2EE10_M_disposeEv ppng__ZNSt23_Sp_counted_ptr_inplaceINSt13__future_base13_State_baseV2ESaIvELN9__gnu_cxx12_Lock_policyE2EE10_M_disposeEv
_ZNSt23_Sp_counted_ptr_inplaceINSt13__future_base13_State_baseV2ESaIvELN9__gnu_cxx12_Lock_policyE2EE14_M_get_deleterERKSt9type_info ppng__ZNSt23_Sp_counted_ptr_inplaceINSt13__future_base13_State_baseV2ESaIvELN9__gnu_cxx12_Lock_policyE2EE14_M_get_deleterERKSt9type_info
_ZNSt23_Sp_counted_ptr_inplaceINSt13__future_base13_State_baseV2ESaIvELN9__gnu_cxx12_Lock_policyE2EED0Ev ppng__ZNSt23_Sp_counted_ptr_inplaceINSt13__future_base13_State_baseV2ESaIvELN9__gnu_cxx12_Lock_policyE2EED0Ev
_ZNSt23_Sp_counted_ptr_inplaceISt6vectorIiSaIiEESaIvELN9__gnu_cxx12_Lock_policyE2EE10_M_destroyEv ppng__ZNSt23_Sp_counted_ptr_inplaceISt6vectorIiSaIiEESaIvELN9__gnu_cxx12_Lock_policyE2EE10_M_destroyEv
_ZNSt23_Sp_counted_ptr_inplaceISt6vectorIiSaIiEESaIvELN9__gnu_cxx12_Lock_policyE2EE10_M_disposeEv ppng__ZNSt23_Sp_counted_ptr_inplaceISt6vectorIiSaIiEESaIvELN9__gnu_cxx12_Lock_policyE2EE10_M_disposeEv
_ZNSt23_Sp_counted_ptr_inplaceISt6vectorIiSaIiEESaIvELN9__gnu_cxx12_Lock_policyE2EE14_M_get_deleterERKSt9type_info ppng__ZNSt23_Sp_counted_ptr_inplaceISt6vectorIiSaIiEESaIvELN9__gnu_cxx12_Lock_policyE2EE14_M_get_deleterERKSt9type_info
_ZNSt23_Sp_counted_ptr_inplaceISt6vectorIiSaIiEESaIvELN9__gnu_cxx12_Lock_policyE2EED0Ev ppng__ZNSt23_Sp_counted_ptr_inplaceISt6vectorIiSaIiEESaIvELN9__gnu_cxx12_Lock_policyE2EED0Ev
_ZNSt6thread24_M_thread_deps_never_runEv ppng__ZNSt6thread24_M_thread_deps_never_runEv
_ZNSt6vectorIhSaIhEE6resizeEm ppng__ZNSt6vectorIhSaIhEE6resizeEm
_ZNSt6vectorINSt7__cxx1112basic_stringIcSt11char_traitsIcESaIcEEESaIS5_EED2Ev ppng__ZNSt6vectorINSt7__cxx1112basic_stringIcSt11char_traitsIcESaIcEEESaIS5_EED2Ev
_ZNSt6vectorIP5tableSaIS1_EE17_M_default_appendEm ppng__ZNSt6vectorIP5tableSaIS1_EE17_M_default_appendEm
_ZNSt6vectorIP7table_sSaIS1_EE17_M_default_appendEm ppng__ZNSt6vectorIP7table_sSaIS1_EE17_M_default_appendEm
_ZNSt6vectorIS_IhSaIhEESaIS1_EED2Ev ppng__ZNSt6vectorIS_IhSaIhEESaIS1_EED2Ev
_ZNSt6vectorISt6futureIbESaIS1_EED2Ev ppng__ZNSt6vectorISt6futureIbESaIS1_EED2Ev
_ZNSt6vectorISt6futureIvESaIS1_EE17_M_realloc_appendIJS1_EEEvDpOT_ ppng__ZNSt6vectorISt6futureIvESaIS1_EE17_M_realloc_appendIJS1_EEEvDpOT_
_ZNSt6vectorISt6futureIvESaIS1_EED2Ev ppng__ZNSt6vectorISt6futureIvESaIS1_EED2Ev
_ZNSt6vectorISt6threadSaIS0_EED2Ev ppng__ZNSt6vectorISt6threadSaIS0_EED2Ev
_ZNSt6vectorItSaItEE14_M_fill_insertEN9__gnu_cxx17__normal_iteratorIPtS1_EEmRKt ppng__ZNSt6vectorItSaItEE14_M_fill_insertEN9__gnu_cxx17__normal_iteratorIPtS1_EEmRKt
_ZNSt6vectorItSaItEE17_M_default_appendEm ppng__ZNSt6vectorItSaItEE17_M_default_appendEm
_ZNSt7promiseIvED2Ev ppng__ZNSt7promiseIvED2Ev
_ZTI10FileReader ppng__ZTI10FileReader
_ZTI10FileWriter ppng__ZTI10FileWriter
_ZTI12MemoryReader ppng__ZTI12MemoryReader
_ZTI12MemoryWriter ppng__ZTI12MemoryWriter
_ZTI12StreamReader ppng__ZTI12StreamReader
_ZTI12StreamWriter ppng__ZTI12StreamWriter
_ZTI6Reader ppng__ZTI6Reader
_ZTI6Writer ppng__ZTI6Writer
_ZTINSt13__future_base13_State_baseV27_SetterIvvEE ppng__ZTINSt13__future_base13_State_baseV27_SetterIvvEE
_ZTINSt13__future_base13_State_baseV2E ppng__ZTINSt13__future_base13_State_baseV2E
_ZTINSt13__future_base21_Async_state_commonV2E ppng__ZTINSt13__future_base21_Async_state_commonV2E
_ZTINSt13__future_base7_ResultIbEE ppng__ZTINSt13__future_base7_ResultIbEE
_ZTINSt13__future_base7_ResultIvEE ppng__ZTINSt13__future_base7_ResultIvEE
_ZTISt11_Mutex_baseILN9__gnu_cxx12_Lock_policyE2EE ppng__ZTISt11_Mutex_baseILN9__gnu_cxx12_Lock_policyE2EE
_ZTISt16_Sp_counted_baseILN9__gnu_cxx12_Lock_policyE2EE ppng__ZTISt16_Sp_counted_baseILN9__gnu_cxx12_Lock_policyE2EE
_ZTISt23_Sp_counted_ptr_inplaceINSt13__future_base13_State_baseV2ESaIvELN9__gnu_cxx12_Lock_policyE2EE ppng__ZTISt23_Sp_counted_ptr_inplaceINSt13__future_base13_State_baseV2ESaIvELN9__gnu_cxx12_Lock_policyE2EE
_ZTISt23_Sp_counted_ptr_inplaceISt6vectorIiSaIiEESaIvELN9__gnu_cxx12_Lock_policyE2EE ppng__ZTISt23_Sp_counted_ptr_inplaceISt6vectorIiSaIiEESaIvELN9__gnu_cxx12_Lock_policyE2EE
_ZTS10FileReader ppng__ZTS10FileReader
_ZTS10FileWriter ppng__ZTS10FileWriter
_ZTS12MemoryReader ppng__ZTS12MemoryReader
_ZTS12MemoryWriter ppng__ZTS12MemoryWriter
_ZTS12StreamReader ppng__ZTS12StreamReader
_ZTS12StreamWriter ppng__ZTS12StreamWriter
_ZTS6Reader ppng__ZTS6Reader
_ZTS6Writer ppng__ZTS6Writer
_ZTSNSt13__future_base13_State_baseV27_SetterIvvEE ppng__ZTSNSt13__future_base13_State_baseV27_SetterIvvEE
_ZTSNSt13__future_base13_State_baseV2E ppng__ZTSNSt13__future_base13_State_baseV2E
_ZTSNSt13__future_base21_Async_state_commonV2E ppng__ZTSNSt13__future_base21_Async_state_commonV2E
_ZTSNSt13__future_base7_ResultIbEE ppng__ZTSNSt13__future_base7_ResultIbEE
_ZTSNSt13__future_base7_ResultIvEE ppng__ZTSNSt13__future_base7_ResultIvEE
_ZTSSt11_Mutex_baseILN9__gnu_cxx12_Lock_policyE2EE ppng__ZTSSt11_Mutex_baseILN9__gnu_cxx12_Lock_policyE2EE
_ZTSSt16_Sp_counted_baseILN9__gnu_cxx12_Lock_policyE2EE ppng__ZTSSt16_Sp_counted_baseILN9__gnu_cxx12_Lock_policyE2EE
_ZTSSt19_Sp_make_shared_tag ppng__ZTSSt19_Sp_make_shared_tag
_ZTSSt23_Sp_counted_ptr_inplaceINSt13__future_base13_State_baseV2ESaIvELN9__gnu_cxx12_Lock_policyE2EE ppng__ZTSSt23_Sp_counted_ptr_inplaceINSt13__future_base13_State_baseV2ESaIvELN9__gnu_cxx12_Lock_policyE2EE
_ZTSSt23_Sp_counted_ptr_inplaceISt6vectorIiSaIiEESaIvELN9__gnu_cxx12_Lock_policyE2EE ppng__ZTSSt23_Sp_counted_ptr_inplaceISt6vectorIiSaIiEESaIvELN9__gnu_cxx12_Lock_policyE2EE
_ZTV10FileReader ppng__ZTV10FileReader
_ZTV10FileWriter ppng__ZTV10FileWriter
_ZTV12MemoryReader ppng__ZTV12MemoryReader
_ZTV12MemoryWriter ppng__ZTV12MemoryWriter
_ZTV12StreamReader ppng__ZTV12StreamReader
_ZTV12StreamWriter ppng__ZTV12StreamWriter
_ZTVNSt13__future_base13_State_baseV2E ppng__ZTVNSt13__future_base13_State_baseV2E
_ZTVNSt13__future_base21_Async_state_commonV2E ppng__ZTVNSt13__future_base21_Async_state_commonV2E
_ZTVNSt13__future_base7_ResultIbEE ppng__ZTVNSt13__future_base7_ResultIbEE
_ZTVNSt13__future_base7_ResultIvEE ppng__ZTVNSt13__future_base7_ResultIvEE
_ZTVSt23_Sp_counted_ptr_inplaceINSt13__future_base13_State_baseV2ESaIvELN9__gnu_cxx12_Lock_policyE2EE ppng__ZTVSt23_Sp_counted_ptr_inplaceINSt13__future_base13_State_baseV2ESaIvELN9__gnu_cxx12_Lock_policyE2EE
_ZTVSt23_Sp_counted_ptr_inplaceISt6vectorIiSaIiEESaIvELN9__gnu_cxx12_Lock_policyE2EE ppng__ZTVSt23_Sp_counted_ptr_inplaceISt6vectorIiSaIiEESaIvELN9__gnu_cxx12_Lock_policyE2EE
