_pbitlen_0_1024 ppng__pbitlen_0_1024
_pbitlen_n2048_2047 ppng__pbitlen_n2048_2047
_pjglib_convert_batch ppng__pjglib_convert_batch
_pjglib_convert_file2file ppng__pjglib_convert_file2file
_pjglib_convert_stream2mem ppng__pjglib_convert_stream2mem
_pjglib_convert_stream2stream ppng__pjglib_convert_stream2stream
_pjglib_get_inter_file_threads ppng__pjglib_get_inter_file_threads
_pjglib_get_intra_file_threads ppng__pjglib_get_intra_file_threads
_pjglib_get_max_output_size ppng__pjglib_get_max_output_size
_pjglib_init_streams ppng__pjglib_init_streams
_pjglib_set_inter_file_threads ppng__pjglib_set_inter_file_threads
_pjglib_set_intra_file_threads ppng__pjglib_set_intra_file_threads
_pjglib_set_max_output_size ppng__pjglib_set_max_output_size
_pjglib_short_name ppng__pjglib_short_name
_pjglib_suggest_batch_threads ppng__pjglib_suggest_batch_threads
_pjglib_version_info ppng__pjglib_version_info
_segm_tables ppng__segm_tables
__Z7mbits32jjj ppng___Z7mbits32jjj
__Z7rbits32jj ppng___Z7rbits32jj
__Z8snprintfPcjPKcz ppng___Z8snprintfPcjPKcz
__ZN10FileReader12rewind_bytesEj ppng___ZN10FileReader12rewind_bytesEj
__ZN10FileReader13end_of_readerEv ppng___ZN10FileReader13end_of_readerEv
__ZN10FileReader14num_bytes_readEv ppng___ZN10FileReader14num_bytes_readEv
__ZN10FileReader4readEPhj ppng___ZN10FileReader4readEPhj
__ZN10FileReader4readERSt6vectorIhSaIhEEjj ppng___ZN10FileReader4readERSt6vectorIhSaIhEEjj
__ZN10FileReader4skipEj ppng___ZN10FileReader4skipEj
__ZN10FileReader5errorEv ppng___ZN10FileReader5errorEv
__ZN10FileReader6rewindEv ppng___ZN10FileReader6rewindEv
__ZN10FileReader8get_dataEv ppng___ZN10FileReader8get_dataEv
__ZN10FileReader8get_sizeEv ppng___ZN10FileReader8get_sizeEv
__ZN10FileReader9read_byteEPh ppng___ZN10FileReader9read_byteEPh
__ZN10FileReader9read_byteEv ppng___ZN10FileReader9read_byteEv
__ZN10FileReaderC1ERKNSt7__cxx1112basic_stringIcSt11char_traitsIcESaIcEEE ppng___ZN10FileReaderC1ERKNSt7__cxx1112basic_stringIcSt11char_traitsIcESaIcEEE
__ZN10FileReaderC2ERKNSt7__cxx1112basic_stringIcSt11char_traitsIcESaIcEEE ppng___ZN10FileReaderC2ERKNSt7__cxx1112basic_stringIcSt11char_traitsIcESaIcEEE
__ZN10FileReaderD0Ev ppng___ZN10FileReaderD0Ev
__ZN10FileReaderD1Ev ppng___ZN10FileReaderD1Ev
__ZN10FileReaderD2Ev ppng___ZN10FileReaderD2Ev
__ZN10FileWriter10write_byteEh ppng___ZN10FileWriter10write_byteEh
__ZN10FileWriter17num_bytes_writtenEv ppng___ZN10FileWriter17num_bytes_writtenEv
__ZN10FileWriter5errorEv ppng___ZN10FileWriter5errorEv
__ZN10FileWriter5resetEv ppng___ZN10FileWriter5resetEv
__ZN10FileWriter5writeEPKhj ppng___ZN10FileWriter5writeEPKhj
__ZN10FileWriter5writeERKSt5arrayIhLj2EE ppng___ZN10FileWriter5writeERKSt5arrayIhLj2EE
__ZN10FileWriter5writeERKSt6vectorIhSaIhEE ppng___ZN10FileWriter5writeERKSt6vectorIhSaIhEE
__ZN10FileWriter8get_dataEv ppng___ZN10FileWriter8get_dataEv
__ZN10FileWriterC1ERKNSt7__cxx1112basic_stringIcSt11char_traitsIcESaIcEEE ppng___ZN10FileWriterC1ERKNSt7__cxx1112basic_stringIcSt11char_traitsIcESaIcEEE
__ZN10FileWriterC2ERKNSt7__cxx1112basic_stringIcSt11char_traitsIcESaIcEEE ppng___ZN10FileWriterC2ERKNSt7__cxx1112basic_stringIcSt11char_traitsIcESaIcEEE
__ZN10FileWriterD0Ev ppng___ZN10FileWriterD0Ev
__ZN10FileWriterD1Ev ppng___ZN10FileWriterD1Ev
__ZN10FileWriterD2Ev ppng___ZN10FileWriterD2Ev
__ZN12MemoryReader12rewind_bytesEj ppng___ZN12MemoryReader12rewind_bytesEj
__ZN12MemoryReader13end_of_readerEv ppng___ZN12MemoryReader13end_of_readerEv
__ZN12MemoryReader14num_bytes_readEv ppng___ZN12MemoryReader14num_bytes_readEv
__ZN12MemoryReader4readEPhj ppng___ZN12MemoryReader4readEPhj
__ZN12MemoryReader4readERSt6vectorIhSaIhEEjj ppng___ZN12MemoryReader4readERSt6vectorIhSaIhEEjj
__ZN12MemoryReader4skipEj ppng___ZN12MemoryReader4skipEj
__ZN12MemoryReader5errorEv ppng___ZN12MemoryReader5errorEv
__ZN12MemoryReader6rewindEv ppng___ZN12MemoryReader6rewindEv
__ZN12MemoryReader8get_dataEv ppng___ZN12MemoryReader8get_dataEv
__ZN12MemoryReader8get_sizeEv ppng___ZN12MemoryReader8get_sizeEv
__ZN12MemoryReader9read_byteEPh ppng___ZN12MemoryReader9read_byteEPh
__ZN12MemoryReader9read_byteEv ppng___ZN12MemoryReader9read_byteEv
__ZN12MemoryReaderC1EPKhj ppng___ZN12MemoryReaderC1EPKhj
__ZN12MemoryReaderC1ERKSt6vectorIhSaIhEE ppng___ZN12MemoryReaderC1ERKSt6vectorIhSaIhEE
__ZN12MemoryReaderC2EPKhj ppng___ZN12MemoryReaderC2EPKhj
__ZN12MemoryReaderC2ERKSt6vectorIhSaIhEE ppng___ZN12MemoryReaderC2ERKSt6vectorIhSaIhEE
__ZN12MemoryReaderD0Ev ppng___ZN12MemoryReaderD0Ev
__ZN12MemoryReaderD1Ev ppng___ZN12MemoryReaderD1Ev
__ZN12MemoryWriter10write_byteEh ppng___ZN12MemoryWriter10write_byteEh
__ZN12MemoryWriter17num_bytes_writtenEv ppng___ZN12MemoryWriter17num_bytes_writtenEv
__ZN12MemoryWriter5errorEv ppng___ZN12MemoryWriter5errorEv
__ZN12MemoryWriter5resetEv ppng___ZN12MemoryWriter5resetEv
__ZN12MemoryWriter5writeEPKhj ppng___ZN12MemoryWriter5writeEPKhj
__ZN12MemoryWriter5writeERKSt5arrayIhLj2EE ppng___ZN12MemoryWriter5writeERKSt5arrayIhLj2EE
__ZN12MemoryWriter5writeERKSt6vectorIhSaIhEE ppng___ZN12MemoryWriter5writeERKSt6vectorIhSaIhEE
__ZN12MemoryWriter8get_dataEv ppng___ZN12MemoryWriter8get_dataEv
__ZN12MemoryWriterC1Ev ppng___ZN12MemoryWriterC1Ev
__ZN12MemoryWriterC2Ev ppng___ZN12MemoryWriterC2Ev
__ZN12MemoryWriterD0Ev ppng___ZN12MemoryWriterD0Ev
__ZN12MemoryWriterD1Ev ppng___ZN12MemoryWriterD1Ev
__ZN12StreamReader12rewind_bytesEj ppng___ZN12StreamReader12rewind_bytesEj
__ZN12StreamReader13end_of_readerEv ppng___ZN12StreamReader13end_of_readerEv
__ZN12StreamReader14num_bytes_readEv ppng___ZN12StreamReader14num_bytes_readEv
__ZN12StreamReader4readEPhj ppng___ZN12StreamReader4readEPhj
__ZN12StreamReader4readERSt6vectorIhSaIhEEjj ppng___ZN12StreamReader4readERSt6vectorIhSaIhEEjj
__ZN12StreamReader4skipEj ppng___ZN12StreamReader4skipEj
__ZN12StreamReader5errorEv ppng___ZN12StreamReader5errorEv
__ZN12StreamReader6rewindEv ppng___ZN12StreamReader6rewindEv
__ZN12StreamReader8get_dataEv ppng___ZN12StreamReader8get_dataEv
__ZN12StreamReader8get_sizeEv ppng___ZN12StreamReader8get_sizeEv
__ZN12StreamReader9read_byteEPh ppng___ZN12StreamReader9read_byteEPh
__ZN12StreamReader9read_byteEv ppng___ZN12StreamReader9read_byteEv
__ZN12StreamReaderC1Ev ppng___ZN12StreamReaderC1Ev
__ZN12StreamReaderC2Ev ppng___ZN12StreamReaderC2Ev
__ZN12StreamReaderD0Ev ppng___ZN12StreamReaderD0Ev
__ZN12StreamReaderD1Ev ppng___ZN12StreamReaderD1Ev
__ZN12StreamWriter10write_byteEh ppng___ZN12StreamWriter10write_byteEh
__ZN12StreamWriter17num_bytes_writtenEv ppng___ZN12StreamWriter17num_bytes_writtenEv
__ZN12StreamWriter5errorEv ppng___ZN12StreamWriter5errorEv
__ZN12StreamWriter5resetEv ppng___ZN12StreamWriter5resetEv
__ZN12StreamWriter5writeEPKhj ppng___ZN12StreamWriter5writeEPKhj
__ZN12StreamWriter5writeERKSt5arrayIhLj2EE ppng___ZN12StreamWriter5writeERKSt5arrayIhLj2EE
__ZN12StreamWriter5writeERKSt6vectorIhSaIhEE ppng___ZN12StreamWriter5writeERKSt6vectorIhSaIhEE
__ZN12StreamWriter8get_dataEv ppng___ZN12StreamWriter8get_dataEv
__ZN12StreamWriterC1Ev ppng___ZN12StreamWriterC1Ev
__ZN12StreamWriterC2Ev ppng___ZN12StreamWriterC2Ev
__ZN12StreamWriterD0Ev ppng___ZN12StreamWriterD0Ev
__ZN12StreamWriterD1Ev ppng___ZN12StreamWriterD1Ev
__ZN12StreamWriterD2Ev ppng___ZN12StreamWriterD2Ev
__ZN17ArithmeticDecoder12decode_countEP6symbol ppng___ZN17ArithmeticDecoder12decode_countEP6symbol
__ZN17ArithmeticDecoder6decodeEP6symbol ppng___ZN17ArithmeticDecoder6decodeEP6symbol
__ZN17ArithmeticDecoder8read_bitEv ppng___ZN17ArithmeticDecoder8read_bitEv
__ZN17ArithmeticDecoderC1ER6Reader ppng___ZN17ArithmeticDecoderC1ER6Reader
__ZN17ArithmeticDecoderC2ER6Reader ppng___ZN17ArithmeticDecoderC2ER6Reader
__ZN17ArithmeticEncoder6encodeEP6symbol ppng___ZN17ArithmeticEncoder6encodeEP6symbol
__ZN17ArithmeticEncoder8finalizeEv ppng___ZN17ArithmeticEncoder8finalizeEv
__ZN17ArithmeticEncoderC1ER6Writer ppng___ZN17ArithmeticEncoderC1ER6Writer
__ZN17ArithmeticEncoderC2ER6Writer ppng___ZN17ArithmeticEncoderC2ER6Writer
__ZN17ArithmeticEncoderD1Ev ppng___ZN17ArithmeticEncoderD1Ev
__ZN17ArithmeticEncoderD2Ev ppng___ZN17ArithmeticEncoderD2Ev
__ZN19ArithmeticBitWriter16write_n_one_bitsEj ppng___ZN19ArithmeticBitWriter16write_n_one_bitsEj
__ZN19ArithmeticBitWriter17write_n_zero_bitsEj ppng___ZN19ArithmeticBitWriter17write_n_zero_bitsEj
__ZN19ArithmeticBitWriter3padEv ppng___ZN19ArithmeticBitWriter3padEv
__ZN5table15recursive_flushEv ppng___ZN5table15recursive_flushEv
__ZN5tableD1Ev ppng___ZN5tableD1Ev
__ZN6Reader10get_c_dataEv ppng___ZN6Reader10get_c_dataEv
__ZN6Writer10get_c_dataEv ppng___ZN6Writer10get_c_dataEv
__ZN7model_b12update_modelEi ppng___ZN7model_b12update_modelEi
__ZN7model_b13shift_contextEi ppng___ZN7model_b13shift_contextEi
__ZN7model_b16get_symbol_scaleEP6symbol ppng___ZN7model_b16get_symbol_scaleEP6symbol
__ZN7model_b21convert_int_to_symbolEiP6symbol ppng___ZN7model_b21convert_int_to_symbolEiP6symbol
__ZN7model_bC1Eiii ppng___ZN7model_bC1Eiii
__ZN7model_bC2Eiii ppng___ZN7model_bC2Eiii
__ZN7model_bD1Ev ppng___ZN7model_bD1Ev
__ZN7model_bD2Ev ppng___ZN7model_bD2Ev
__ZN7model_s12update_modelEi ppng___ZN7model_s12update_modelEi
__ZN7model_s13shift_contextEi ppng___ZN7model_s13shift_contextEi
__ZN7model_s16get_symbol_scaleEP6symbol ppng___ZN7model_s16get_symbol_scaleEP6symbol
__ZN7model_s21convert_int_to_symbolEiP6symbol ppng___ZN7model_s21convert_int_to_symbolEiP6symbol
__ZN7model_sC1Eiiii ppng___ZN7model_sC1Eiiii
__ZN7model_sC2Eiiii ppng___ZN7model_sC2Eiiii
__ZN7model_sD1Ev ppng___ZN7model_sD1Ev
__ZN7model_sD2Ev ppng___ZN7model_sD2Ev
__ZN7table_s15recursive_flushEv ppng___ZN7table_s15recursive_flushEv
__ZN7table_sD1Ev ppng___ZN7table_sD1Ev
__ZN9BitReader11rewind_bitsEi ppng___ZN9BitReader11rewind_bitsEi
__ZN9BitReader16update_curr_byteEv ppng___ZN9BitReader16update_curr_byteEv
__ZN9BitReader3eofEv ppng___ZN9BitReader3eofEv
__ZN9BitReader4peofEv ppng___ZN9BitReader4peofEv
__ZN9BitReader4readEi ppng___ZN9BitReader4readEi
__ZN9BitReader5unpadEh ppng___ZN9BitReader5unpadEh
__ZN9BitReader6getposEv ppng___ZN9BitReader6getposEv
__ZN9BitReader6setposEii ppng___ZN9BitReader6setposEii
__ZN9BitReader7getbitpEv ppng___ZN9BitReader7getbitpEv
__ZN9BitReader8read_bitEv ppng___ZN9BitReader8read_bitEv
__ZN9BitReaderC1EPhi ppng___ZN9BitReaderC1EPhi
__ZN9BitReaderC2EPhi ppng___ZN9BitReaderC2EPhi
__ZN9BitReaderD1Ev ppng___ZN9BitReaderD1Ev
__ZN9BitReaderD2Ev ppng___ZN9BitReaderD2Ev
__ZN9BitWriter11get_c_bytesEv ppng___ZN9BitWriter11get_c_bytesEv
__ZN9BitWriter15write_curr_byteEv ppng___ZN9BitWriter15write_curr_byteEv
__ZN9BitWriter3padEv ppng___ZN9BitWriter3padEv
__ZN9BitWriter9get_bytesEv ppng___ZN9BitWriter9get_bytesEv
__ZN9BitWriter9write_bitEh ppng___ZN9BitWriter9write_bitEh
__ZN9BitWriter9write_u16Etj ppng___ZN9BitWriter9write_u16Etj
__ZN9BitWriterC1Eh ppng___ZN9BitWriterC1Eh
__ZN9BitWriterC1Ehj ppng___ZN9BitWriterC1Ehj
__ZN9BitWriterC2Eh ppng___ZN9BitWriterC2Eh
__ZN9BitWriterC2Ehj ppng___ZN9BitWriterC2Ehj
__ZN9BitWriterD1Ev ppng___ZN9BitWriterD1Ev
__ZN9BitWriterD2Ev ppng___ZN9BitWriterD2Ev
__ZNK19ArithmeticBitWriter8get_dataEv ppng___ZNK19ArithmeticBitWriter8get_dataEv
__ZNK9BitWriter17num_bytes_writtenEv ppng___ZNK9BitWriter17num_bytes_writtenEv
__ZNKSt13__future_base13_State_baseV221_M_is_deferred_futureEv ppng___ZNKSt13__future_base13_State_baseV221_M_is_deferred_futureEv
__ZNSt10unique_ptrI6ReaderSt14default_deleteIS0_EED1Ev ppng___ZNSt10unique_ptrI6ReaderSt14default_deleteIS0_EED1Ev
__ZNSt10unique_ptrI6WriterSt14default_deleteIS0_EED1Ev ppng___ZNSt10unique_ptrI6WriterSt14default_deleteIS0_EED1Ev
__ZNSt11unique_lockISt5mutexE6unlockEv ppng___ZNSt11unique_lockISt5mutexE6unlockEv
__ZNSt13__future_base13_State_baseV217_M_complete_asyncEv ppng___ZNSt13__future_base13_State_baseV217_M_complete_asyncEv
__ZNSt13__future_base13_State_baseV29_M_do_setEPSt8functionIFSt10unique_ptrINS_12_Result_baseENS3_8_DeleterEEvEEPb ppng___ZNSt13__future_base13_State_baseV29_M_do_setEPSt8functionIFSt10unique_ptrINS_12_Result_baseENS3_8_DeleterEEvEEPb
__ZNSt13__future_base13_State_baseV2D0Ev ppng___ZNSt13__future_base13_State_baseV2D0Ev
__ZNSt13__future_base13_State_baseV2D1Ev ppng___ZNSt13__future_base13_State_baseV2D1Ev
__ZNSt13__future_base13_State_baseV2D2Ev ppng___ZNSt13__future_base13_State_baseV2D2Ev
__ZNSt13__future_base21_Async_state_commonV217_M_complete_asyncEv ppng___ZNSt13__future_base21_Async_state_commonV217_M_complete_asyncEv
__ZNSt13__future_base21_Async_state_commonV2D0Ev ppng___ZNSt13__future_base21_Async_state_commonV2D0Ev
__ZNSt13__future_base21_Async_state_commonV2D1Ev ppng___ZNSt13__future_base21_Async_state_commonV2D1Ev
__ZNSt13__future_base7_ResultIbE10_M_destroyEv ppng___ZNSt13__future_base7_ResultIbE10_M_destroyEv
__ZNSt13__future_base7_ResultIbED0Ev ppng___ZNSt13__future_base7_ResultIbED0Ev
__ZNSt13__future_base7_ResultIbED1Ev ppng___ZNSt13__future_base7_ResultIbED1Ev
__ZNSt13__future_base7_ResultIvE10_M_destroyEv ppng___ZNSt13__future_base7_ResultIvE10_M_destroyEv
__ZNSt13__future_base7_ResultIvED0Ev ppng___ZNSt13__future_base7_ResultIvED0Ev
__ZNSt13__future_base7_ResultIvED1Ev ppng___ZNSt13__future_base7_ResultIvED1Ev
__ZNSt15__exception_ptr12__dest_thunkISt12future_errorEEvPv ppng___ZNSt15__exception_ptr12__dest_thunkISt12future_errorEEvPv
__ZNSt16_Sp_counted_baseILN9__gnu_cxx12_Lock_policyE2EE10_M_releaseEv ppng___ZNSt16_Sp_counted_baseILN9__gnu_cxx12_Lock_policyE2EE10_M_releaseEv
__ZNSt17_Function_handlerIFSt10unique_ptrINSt13__future_base12_Result_baseENS2_8_DeleterEEvENS1_13_State_baseV27_SetterIvvEEE10_M_managerERSt9_Any_dataRKSA_St18_Manager_operation ppng___ZNSt17_Function_handlerIFSt10unique_ptrINSt13__future_base12_Result_baseENS2_8_DeleterEEvENS1_13_State_baseV27_SetterIvvEEE10_M_managerERSt9_Any_dataRKSA_St18_Manager_operation
__ZNSt17_Function_handlerIFSt10unique_ptrINSt13__future_base12_Result_baseENS2_8_DeleterEEvENS1_13_State_baseV27_SetterIvvEEE9_M_invokeERKSt9_Any_data ppng___ZNSt17_Function_handlerIFSt10unique_ptrINSt13__future_base12_Result_baseENS2_8_DeleterEEvENS1_13_State_baseV27_SetterIvvEEE9_M_invokeERKSt9_Any_data
__ZNSt23_Sp_counted_ptr_inplaceINSt13__future_base13_State_baseV2ESaIvELN9__gnu_cxx12_Lock_policyE2EE10_M_destroyEv ppng___ZNSt23_Sp_counted_ptr_inplaceINSt13__future_base13_State_baseV2ESaIvELN9__gnu_cxx12_Lock_policyE2EE10_M_destroyEv
__ZNSt23_Sp_counted_ptr_inplaceINSt13__future_base13_State_baseV2ESaIvELN9__gnu_cxx12_Lock_policyE2EE10_M_disposeEv ppng___ZNSt23_Sp_counted_ptr_inplaceINSt13__future_base13_State_baseV2ESaIvELN9__gnu_cxx12_Lock_policyE2EE10_M_disposeEv
__ZNSt23_Sp_counted_ptr_inplaceINSt13__future_base13_State_baseV2ESaIvELN9__gnu_cxx12_Lock_policyE2EE14_M_get_deleterERKSt9type_info ppng___ZNSt23_Sp_counted_ptr_inplaceINSt13__future_base13_State_baseV2ESaIvELN9__gnu_cxx12_Lock_policyE2EE14_M_get_deleterERKSt9type_info
__ZNSt23_Sp_counted_ptr_inplaceINSt13__future_base13_State_baseV2ESaIvELN9__gnu_cxx12_Lock_policyE2EED0Ev ppng___ZNSt23_Sp_counted_ptr_inplaceINSt13__future_base13_State_baseV2ESaIvELN9__gnu_cxx12_Lock_policyE2EED0Ev
__ZNSt23_Sp_counted_ptr_inplaceINSt13__future_base13_State_baseV2ESaIvELN9__gnu_cxx12_Lock_policyE2EED1Ev ppng___ZNSt23_Sp_counted_ptr_inplaceINSt13__future_base13_State_baseV2ESaIvELN9__gnu_cxx12_Lock_policyE2EED1Ev
__ZNSt23_Sp_counted_ptr_inplaceISt6vectorIiSaIiEESaIvELN9__gnu_cxx12_Lock_policyE2EE10_M_destroyEv ppng___ZNSt23_Sp_counted_ptr_inplaceISt6vectorIiSaIiEESaIvELN9__gnu_cxx12_Lock_policyE2EE10_M_destroyEv
__ZNSt23_Sp_counted_ptr_inplaceISt6vectorIiSaIiEESaIvELN9__gnu_cxx12_Lock_policyE2EE10_M_disposeEv ppng___ZNSt23_Sp_counted_ptr_inplaceISt6vectorIiSaIiEESaIvELN9__gnu_cxx12_Lock_policyE2EE10_M_disposeEv
__ZNSt23_Sp_counted_ptr_inplaceISt6vectorIiSaIiEESaIvELN9__gnu_cxx12_Lock_policyE2EE14_M_get_deleterERKSt9type_info ppng___ZNSt23_Sp_counted_ptr_inplaceISt6vectorIiSaIiEESaIvELN9__gnu_cxx12_Lock_policyE2EE14_M_get_deleterERKSt9type_info
__ZNSt23_Sp_counted_ptr_inplaceISt6vectorIiSaIiEESaIvELN9__gnu_cxx12_Lock_policyE2EED0Ev ppng___ZNSt23_Sp_counted_ptr_inplaceISt6vectorIiSaIiEESaIvELN9__gnu_cxx12_Lock_policyE2EED0Ev
__ZNSt23_Sp_counted_ptr_inplaceISt6vectorIiSaIiEESaIvELN9__gnu_cxx12_Lock_policyE2EED1Ev ppng___ZNSt23_Sp_counted_ptr_inplaceISt6vectorIiSaIiEESaIvELN9__gnu_cxx12_Lock_policyE2EED1Ev
__ZNSt6thread24_M_thread_deps_never_runEv ppng___ZNSt6thread24_M_thread_deps_never_runEv
__ZNSt6vectorIhSaIhEE17_M_default_appendEj ppng___ZNSt6vectorIhSaIhEE17_M_default_appendEj
__ZNSt6vectorINSt7__cxx1112basic_stringIcSt11char_traitsIcESaIcEEESaIS5_EED1Ev ppng___ZNSt6vectorINSt7__cxx1112basic_stringIcSt11char_traitsIcESaIcEEESaIS5_EED1Ev
__ZNSt6vectorIP5tableSaIS1_EE17_M_default_appendEj ppng___ZNSt6vectorIP5tableSaIS1_EE17_M_default_appendEj
__ZNSt6vectorIP7table_sSaIS1_EE17_M_default_appendEj ppng___ZNSt6vectorIP7table_sSaIS1_EE17_M_default_appendEj
__ZNSt6vectorIS_IhSaIhEESaIS1_EED1Ev ppng___ZNSt6vectorIS_IhSaIhEESaIS1_EED1Ev
__ZNSt6vectorISt6futureIbESaIS1_EED1Ev ppng___ZNSt6vectorISt6futureIbESaIS1_EED1Ev
__ZNSt6vectorISt6futureIvESaIS1_EE17_M_realloc_appendIJS1_EEEvDpOT_ ppng___ZNSt6vectorISt6futureIvESaIS1_EE17_M_realloc_appendIJS1_EEEvDpOT_
__ZNSt6vectorISt6futureIvESaIS1_EED1Ev ppng___ZNSt6vectorISt6futureIvESaIS1_EED1Ev
__ZNSt6vectorItSaItEE14_M_fill_insertEN9__gnu_cxx17__normal_iteratorIPtS1_EEjRKt ppng___ZNSt6vectorItSaItEE14_M_fill_insertEN9__gnu_cxx17__normal_iteratorIPtS1_EEjRKt
__ZNSt6vectorItSaItEE17_M_default_appendEj ppng___ZNSt6vectorItSaItEE17_M_default_appendEj
__ZNSt7promiseIvED1Ev ppng___ZNSt7promiseIvED1Ev
__ZSteqRKSt10error_codeRKSt15error_condition ppng___ZSteqRKSt10error_codeRKSt15error_condition
__ZTI10FileReader ppng___ZTI10FileReader
__ZTI10FileWriter ppng___ZTI10FileWriter
__ZTI12MemoryReader ppng___ZTI12MemoryReader
__ZTI12MemoryWriter ppng___ZTI12MemoryWriter
__ZTI12StreamReader ppng___ZTI12StreamReader
__ZTI12StreamWriter ppng___ZTI12StreamWriter
__ZTI6Reader ppng___ZTI6Reader
__ZTI6Writer ppng___ZTI6Writer
__ZTIN10__cxxabiv115__forced_unwindE ppng___ZTIN10__cxxabiv115__forced_unwindE
__ZTINSt13__future_base12_Result_baseE ppng___ZTINSt13__future_base12_Result_baseE
__ZTINSt13__future_base13_State_baseV27_SetterIvvEE ppng___ZTINSt13__future_base13_State_baseV27_SetterIvvEE
__ZTINSt13__future_base13_State_baseV2E ppng___ZTINSt13__future_base13_State_baseV2E
__ZTINSt13__future_base21_Async_state_commonV2E ppng___ZTINSt13__future_base21_Async_state_commonV2E
__ZTINSt13__future_base7_ResultIbEE ppng___ZTINSt13__future_base7_ResultIbEE
__ZTINSt13__future_base7_ResultIvEE ppng___ZTINSt13__future_base7_ResultIvEE
__ZTINSt6thread6_StateE ppng___ZTINSt6thread6_StateE
__ZTISt11logic_error ppng___ZTISt11logic_error
__ZTISt11_Mutex_baseILN9__gnu_cxx12_Lock_policyE2EE ppng___ZTISt11_Mutex_baseILN9__gnu_cxx12_Lock_policyE2EE
__ZTISt12future_error ppng___ZTISt12future_error
__ZTISt12system_error ppng___ZTISt12system_error
__ZTISt13runtime_error ppng___ZTISt13runtime_error
__ZTISt16_Sp_counted_baseILN9__gnu_cxx12_Lock_policyE2EE ppng___ZTISt16_Sp_counted_baseILN9__gnu_cxx12_Lock_policyE2EE
__ZTISt19_Sp_make_shared_tag ppng___ZTISt19_Sp_make_shared_tag
__ZTISt23_Sp_counted_ptr_inplaceINSt13__future_base13_State_baseV2ESaIvELN9__gnu_cxx12_Lock_policyE2EE ppng___ZTISt23_Sp_counted_ptr_inplaceINSt13__future_base13_State_baseV2ESaIvELN9__gnu_cxx12_Lock_policyE2EE
__ZTISt23_Sp_counted_ptr_inplaceISt6vectorIiSaIiEESaIvELN9__gnu_cxx12_Lock_policyE2EE ppng___ZTISt23_Sp_counted_ptr_inplaceISt6vectorIiSaIiEESaIvELN9__gnu_cxx12_Lock_policyE2EE
__ZTISt9exception ppng___ZTISt9exception
__ZTS10FileReader ppng___ZTS10FileReader
__ZTS10FileWriter ppng___ZTS10FileWriter
__ZTS12MemoryReader ppng___ZTS12MemoryReader
__ZTS12MemoryWriter ppng___ZTS12MemoryWriter
__ZTS12StreamReader ppng___ZTS12StreamReader
__ZTS12StreamWriter ppng___ZTS12StreamWriter
__ZTS6Reader ppng___ZTS6Reader
__ZTS6Writer ppng___ZTS6Writer
__ZTSN10__cxxabiv115__forced_unwindE ppng___ZTSN10__cxxabiv115__forced_unwindE
__ZTSNSt13__future_base12_Result_baseE ppng___ZTSNSt13__future_base12_Result_baseE
__ZTSNSt13__future_base13_State_baseV27_SetterIvvEE ppng___ZTSNSt13__future_base13_State_baseV27_SetterIvvEE
__ZTSNSt13__future_base13_State_baseV2E ppng___ZTSNSt13__future_base13_State_baseV2E
__ZTSNSt13__future_base21_Async_state_commonV2E ppng___ZTSNSt13__future_base21_Async_state_commonV2E
__ZTSNSt13__future_base7_ResultIbEE ppng___ZTSNSt13__future_base7_ResultIbEE
__ZTSNSt13__future_base7_ResultIvEE ppng___ZTSNSt13__future_base7_ResultIvEE
__ZTSNSt6thread6_StateE ppng___ZTSNSt6thread6_StateE
__ZTSSt11logic_error ppng___ZTSSt11logic_error
__ZTSSt11_Mutex_baseILN9__gnu_cxx12_Lock_policyE2EE ppng___ZTSSt11_Mutex_baseILN9__gnu_cxx12_Lock_policyE2EE
__ZTSSt12future_error ppng___ZTSSt12future_error
__ZTSSt12system_error ppng___ZTSSt12system_error
__ZTSSt13runtime_error ppng___ZTSSt13runtime_error
__ZTSSt16_Sp_counted_baseILN9__gnu_cxx12_Lock_policyE2EE ppng___ZTSSt16_Sp_counted_baseILN9__gnu_cxx12_Lock_policyE2EE
__ZTSSt19_Sp_make_shared_tag ppng___ZTSSt19_Sp_make_shared_tag
__ZTSSt23_Sp_counted_ptr_inplaceINSt13__future_base13_State_baseV2ESaIvELN9__gnu_cxx12_Lock_policyE2EE ppng___ZTSSt23_Sp_counted_ptr_inplaceINSt13__future_base13_State_baseV2ESaIvELN9__gnu_cxx12_Lock_policyE2EE
__ZTSSt23_Sp_counted_ptr_inplaceISt6vectorIiSaIiEESaIvELN9__gnu_cxx12_Lock_policyE2EE ppng___ZTSSt23_Sp_counted_ptr_inplaceISt6vectorIiSaIiEESaIvELN9__gnu_cxx12_Lock_policyE2EE
__ZTSSt9exception ppng___ZTSSt9exception
__ZTV10FileReader ppng___ZTV10FileReader
__ZTV10FileWriter ppng___ZTV10FileWriter
__ZTV12MemoryReader ppng___ZTV12MemoryReader
__ZTV12MemoryWriter ppng___ZTV12MemoryWriter
__ZTV12StreamReader ppng___ZTV12StreamReader
__ZTV12StreamWriter ppng___ZTV12StreamWriter
__ZTVNSt13__future_base13_State_baseV2E ppng___ZTVNSt13__future_base13_State_baseV2E
__ZTVNSt13__future_base21_Async_state_commonV2E ppng___ZTVNSt13__future_base21_Async_state_commonV2E
__ZTVNSt13__future_base7_ResultIbEE ppng___ZTVNSt13__future_base7_ResultIbEE
__ZTVNSt13__future_base7_ResultIvEE ppng___ZTVNSt13__future_base7_ResultIvEE
__ZTVSt23_Sp_counted_ptr_inplaceINSt13__future_base13_State_baseV2ESaIvELN9__gnu_cxx12_Lock_policyE2EE ppng___ZTVSt23_Sp_counted_ptr_inplaceINSt13__future_base13_State_baseV2ESaIvELN9__gnu_cxx12_Lock_policyE2EE
__ZTVSt23_Sp_counted_ptr_inplaceISt6vectorIiSaIiEESaIvELN9__gnu_cxx12_Lock_policyE2EE ppng___ZTVSt23_Sp_counted_ptr_inplaceISt6vectorIiSaIiEESaIvELN9__gnu_cxx12_Lock_policyE2EE
__ZZNSt19_Sp_make_shared_tag5_S_tiEvE5__tag ppng___ZZNSt19_Sp_make_shared_tag5_S_tiEvE5__tag
__ZZNSt9once_flag18_Prepare_executionC4IZSt9call_onceIMNSt13__future_base13_State_baseV2EFvPSt8functionIFSt10unique_ptrINS3_12_Result_baseENS7_8_DeleterEEvEEPbEJPS4_SC_SD_EEvRS_OT_DpOT0_EUlvE_EERSI_ENUlvE_4_FUNEv ppng___ZZNSt9once_flag18_Prepare_executionC4IZSt9call_onceIMNSt13__future_base13_State_baseV2EFvPSt8functionIFSt10unique_ptrINS3_12_Result_baseENS7_8_DeleterEEvEEPbEJPS4_SC_SD_EEvRS_OT_DpOT0_EUlvE_EERSI_ENUlvE_4_FUNEv
__ZZNSt9once_flag18_Prepare_executionC4IZSt9call_onceIMSt6threadFvvEJPS3_EEvRS_OT_DpOT0_EUlvE_EERS8_ENUlvE_4_FUNEv ppng___ZZNSt9once_flag18_Prepare_executionC4IZSt9call_onceIMSt6threadFvvEJPS3_EEvRS_OT_DpOT0_EUlvE_EERS8_ENUlvE_4_FUNEv
